	.text
	.abicalls
	.option	pic0
	.section	.mdebug.abi32,"",@progbits
	.nan	legacy
	.text
	.file	"main.c"
	.file	0 "/home/antonio/Projects/psx-emu/mips-test" "main.c" md5 0x028634f99ecae7111bf47d632cd5375e
	.globl	factorial                       # -- Begin function factorial
	.p2align	2
	.type	factorial,@function
	.set	nomicromips
	.set	nomips16
	.ent	factorial
factorial:                              # @factorial
$tmp0:
.set $func_begin0, ($tmp0)
	.loc	0 2 0                           # main.c:2:0
	.cfi_sections .debug_frame
	.cfi_startproc
	.frame	$fp,40,$ra
	.mask 	0xc0000000,-4
	.fmask	0x00000000,0
	.set	noreorder
	.set	nomacro
	.set	noat
# %bb.0:
	addiu	$sp, $sp, -40
	.cfi_def_cfa_offset 40
	sw	$ra, 36($sp)                    # 4-byte Folded Spill
	sw	$fp, 32($sp)                    # 4-byte Folded Spill
	.cfi_offset 31, -4
	.cfi_offset 30, -8
	move	$fp, $sp
	.cfi_def_cfa_register 30
	sw	$4, 24($fp)
$tmp1:
	.loc	0 3 9 prologue_end              # main.c:3:9
	lw	$1, 24($fp)
	nop
$tmp2:
	.loc	0 3 9 is_stmt 0                 # main.c:3:9
	bnez	$1, $BB0_3
	nop
# %bb.1:
	j	$BB0_2
	nop
$BB0_2:
	.loc	0 0 9                           # main.c:0:9
	addiu	$1, $zero, 1
$tmp3:
	.loc	0 3 17                          # main.c:3:17
	sw	$1, 28($fp)
	j	$BB0_4
	nop
$tmp4:
$BB0_3:
	.loc	0 5 12 is_stmt 1                # main.c:5:12
	lw	$1, 24($fp)
	nop
	sw	$1, 20($fp)                     # 4-byte Folded Spill
	.loc	0 5 28 is_stmt 0                # main.c:5:28
	addiu	$4, $1, -1
	.loc	0 5 16                          # main.c:5:16
	jal	factorial
	nop
	lw	$1, 20($fp)                     # 4-byte Folded Reload
	nop
	.loc	0 5 14                          # main.c:5:14
	mult	$1, $2
	mflo	$1
	.loc	0 5 5                           # main.c:5:5
	sw	$1, 28($fp)
	j	$BB0_4
	nop
$BB0_4:
	.loc	0 6 1 is_stmt 1                 # main.c:6:1
	lw	$2, 28($fp)
	move	$sp, $fp
	lw	$fp, 32($sp)                    # 4-byte Folded Reload
	lw	$ra, 36($sp)                    # 4-byte Folded Reload
	addiu	$sp, $sp, 40
	jr	$ra
	nop
$tmp5:
	.set	at
	.set	macro
	.set	reorder
	.end	factorial
$func_end0:
	.size	factorial, ($func_end0)-factorial
	.cfi_endproc
                                        # -- End function
	.globl	fibonnaci                       # -- Begin function fibonnaci
	.p2align	2
	.type	fibonnaci,@function
	.set	nomicromips
	.set	nomips16
	.ent	fibonnaci
fibonnaci:                              # @fibonnaci
$tmp6:
.set $func_begin1, ($tmp6)
	.loc	0 9 0                           # main.c:9:0
	.cfi_startproc
	.frame	$fp,40,$ra
	.mask 	0xc0000000,-4
	.fmask	0x00000000,0
	.set	noreorder
	.set	nomacro
	.set	noat
# %bb.0:
	addiu	$sp, $sp, -40
	.cfi_def_cfa_offset 40
	sw	$ra, 36($sp)                    # 4-byte Folded Spill
	sw	$fp, 32($sp)                    # 4-byte Folded Spill
	.cfi_offset 31, -4
	.cfi_offset 30, -8
	move	$fp, $sp
	.cfi_def_cfa_register 30
	sw	$4, 24($fp)
$tmp7:
	.loc	0 10 9 prologue_end             # main.c:10:9
	lw	$1, 24($fp)
	addiu	$2, $zero, 1
$tmp8:
	.loc	0 10 9 is_stmt 0                # main.c:10:9
	bne	$1, $2, $BB1_3
	nop
# %bb.1:
	j	$BB1_2
	nop
$BB1_2:
	.loc	0 0 9                           # main.c:0:9
	addiu	$1, $zero, 1
$tmp9:
	.loc	0 10 17                         # main.c:10:17
	sw	$1, 28($fp)
	j	$BB1_7
	nop
$tmp10:
$BB1_3:
	.loc	0 11 9 is_stmt 1                # main.c:11:9
	lw	$1, 24($fp)
	addiu	$2, $zero, 2
$tmp11:
	.loc	0 11 9 is_stmt 0                # main.c:11:9
	bne	$1, $2, $BB1_6
	nop
# %bb.4:
	j	$BB1_5
	nop
$BB1_5:
	.loc	0 0 9                           # main.c:0:9
	addiu	$1, $zero, 1
$tmp12:
	.loc	0 11 17                         # main.c:11:17
	sw	$1, 28($fp)
	j	$BB1_7
	nop
$tmp13:
$BB1_6:
	.loc	0 13 22 is_stmt 1               # main.c:13:22
	lw	$1, 24($fp)
	nop
	.loc	0 13 24 is_stmt 0               # main.c:13:24
	addiu	$4, $1, -1
	.loc	0 13 12                         # main.c:13:12
	jal	fibonnaci
	nop
	sw	$2, 20($fp)                     # 4-byte Folded Spill
	.loc	0 13 41                         # main.c:13:41
	lw	$1, 24($fp)
	nop
	.loc	0 13 43                         # main.c:13:43
	addiu	$4, $1, -2
	.loc	0 13 31                         # main.c:13:31
	jal	fibonnaci
	nop
	move	$1, $2
	.loc	0 13 29                         # main.c:13:29
	lw	$2, 20($fp)                     # 4-byte Folded Reload
	nop
	addu	$1, $2, $1
	.loc	0 13 5                          # main.c:13:5
	sw	$1, 28($fp)
	j	$BB1_7
	nop
$BB1_7:
	.loc	0 14 1 is_stmt 1                # main.c:14:1
	lw	$2, 28($fp)
	move	$sp, $fp
	lw	$fp, 32($sp)                    # 4-byte Folded Reload
	lw	$ra, 36($sp)                    # 4-byte Folded Reload
	addiu	$sp, $sp, 40
	jr	$ra
	nop
$tmp14:
	.set	at
	.set	macro
	.set	reorder
	.end	fibonnaci
$func_end1:
	.size	fibonnaci, ($func_end1)-fibonnaci
	.cfi_endproc
                                        # -- End function
	.globl	print                           # -- Begin function print
	.p2align	2
	.type	print,@function
	.set	nomicromips
	.set	nomips16
	.ent	print
print:                                  # @print
$tmp15:
.set $func_begin2, ($tmp15)
	.loc	0 17 0                          # main.c:17:0
	.cfi_startproc
	.frame	$fp,16,$ra
	.mask 	0xc0000000,-4
	.fmask	0x00000000,0
	.set	noreorder
	.set	nomacro
	.set	noat
# %bb.0:
	addiu	$sp, $sp, -16
	.cfi_def_cfa_offset 16
	sw	$ra, 12($sp)                    # 4-byte Folded Spill
	sw	$fp, 8($sp)                     # 4-byte Folded Spill
	.cfi_offset 31, -4
	.cfi_offset 30, -8
	move	$fp, $sp
	.cfi_def_cfa_register 30
	sw	$4, 4($fp)
	lui	$1, 8144
	ori	$1, $1, 1016
$tmp16:
	.loc	0 18 20 prologue_end            # main.c:18:20
	sw	$1, 0($fp)
	.loc	0 19 5                          # main.c:19:5
	j	$BB2_1
	nop
$BB2_1:                                 # =>This Inner Loop Header: Depth=1
	.loc	0 19 13 is_stmt 0               # main.c:19:13
	lw	$1, 4($fp)
	nop
	.loc	0 19 12                         # main.c:19:12
	lbu	$1, 0($1)
	nop
	.loc	0 19 5                          # main.c:19:5
	beqz	$1, $BB2_4
	nop
# %bb.2:                                #   in Loop: Header=BB2_1 Depth=1
	j	$BB2_3
	nop
$BB2_3:                                 #   in Loop: Header=BB2_1 Depth=1
$tmp17:
	.loc	0 20 21 is_stmt 1               # main.c:20:21
	lw	$1, 4($fp)
	nop
	.loc	0 20 20 is_stmt 0               # main.c:20:20
	lbu	$1, 0($1)
	.loc	0 20 10                         # main.c:20:10
	lw	$2, 0($fp)
	nop
	.loc	0 20 18                         # main.c:20:18
	sb	$1, 0($2)
	.loc	0 21 9 is_stmt 1                # main.c:21:9
	lw	$1, 4($fp)
	nop
	addiu	$1, $1, 1
	sw	$1, 4($fp)
$tmp18:
	.loc	0 19 5                          # main.c:19:5
	j	$BB2_1
	nop
$BB2_4:
	.loc	0 23 1                          # main.c:23:1
	move	$sp, $fp
	lw	$fp, 8($sp)                     # 4-byte Folded Reload
	lw	$ra, 12($sp)                    # 4-byte Folded Reload
	addiu	$sp, $sp, 16
	jr	$ra
	nop
$tmp19:
	.set	at
	.set	macro
	.set	reorder
	.end	print
$func_end2:
	.size	print, ($func_end2)-print
	.cfi_endproc
                                        # -- End function
	.globl	main                            # -- Begin function main
	.p2align	2
	.type	main,@function
	.set	nomicromips
	.set	nomips16
	.ent	main
main:                                   # @main
$tmp20:
.set $func_begin3, ($tmp20)
	.loc	0 26 0                          # main.c:26:0
	.cfi_startproc
	.frame	$fp,32,$ra
	.mask 	0xc0000000,-4
	.fmask	0x00000000,0
	.set	noreorder
	.set	nomacro
	.set	noat
# %bb.0:
	addiu	$sp, $sp, -32
	.cfi_def_cfa_offset 32
	sw	$ra, 28($sp)                    # 4-byte Folded Spill
	sw	$fp, 24($sp)                    # 4-byte Folded Spill
	.cfi_offset 31, -4
	.cfi_offset 30, -8
	move	$fp, $sp
	.cfi_def_cfa_register 30
	addiu	$4, $zero, 5
$tmp21:
	.loc	0 27 13 prologue_end            # main.c:27:13
	jal	fibonnaci
	nop
	.loc	0 27 9 is_stmt 0                # main.c:27:9
	sw	$2, 20($fp)
	.loc	0 30 5 is_stmt 1                # main.c:30:5
	lui	$1, %hi($.str)
	addiu	$4, $1, %lo($.str)
	jal	print
	nop
	addiu	$2, $zero, 0
	.loc	0 32 5                          # main.c:32:5
	move	$sp, $fp
	lw	$fp, 24($sp)                    # 4-byte Folded Reload
	lw	$ra, 28($sp)                    # 4-byte Folded Reload
	addiu	$sp, $sp, 32
	jr	$ra
	nop
$tmp22:
	.set	at
	.set	macro
	.set	reorder
	.end	main
$func_end3:
	.size	main, ($func_end3)-main
	.cfi_endproc
                                        # -- End function
	.type	$.str,@object                   # @.str
	.section	.rodata.str1.1,"aMS",@progbits,1
$.str:
	.asciz	"Hello world!\r\n"
	.size	$.str, 15

	.section	".note.GNU-stack","",@progbits
	.addrsig
	.addrsig_sym factorial
	.addrsig_sym fibonnaci
	.addrsig_sym print
	.text